; Function Attrs: null_pointer_is_valid sspstrong uwtable
define internal void @dtap_tp_open_loop_cmd(ptr noundef %0, ptr noundef %1, ptr noundef %2, i32 noundef %3, i32 noundef %4) #1 {
  %.not = icmp eq i32 %4, 0
  br i1 %.not, label %.thread, label %6

6:                                                ; preds = %5
  %7 = icmp sgt i32 %4, 0
  br i1 %7, label %8, label %.thread31

8:                                                ; preds = %6
  %9 = tail call zeroext i16 @elem_v(ptr noundef %0, ptr noundef %1, ptr noundef %2, i32 noundef 1, i32 noundef 61, i32 noundef %3, ptr noundef null)
  %.not26 = icmp eq i16 %9, 0
  br i1 %.not26, label %.thread31, label %12

.thread31:                                        ; preds = %6, %8
  %10 = tail call ptr @get_gsm_a_msg_string(i32 noundef 1, i32 noundef 61)
  %11 = tail call ptr (ptr, ptr, ptr, ptr, i32, i32, ptr, ...) @proto_tree_add_expert_format(ptr noundef %1, ptr noundef %2, ptr noundef nonnull @ei_gsm_a_dtap_missing_mandatory_element, ptr noundef %0, i32 noundef %3, i32 noundef 0, ptr noundef nonnull @.str.1325, ptr noundef %10, ptr noundef nonnull @.str.824)
  br label %16

12:                                               ; preds = %8
  %13 = zext i16 %9 to i32
  %14 = add i32 %3, %13
  %15 = sub nsw i32 %4, %13
  %.not27 = icmp eq i32 %15, 0
  br i1 %.not27, label %.thread, label %16

16:                                               ; preds = %.thread31, %12
  %.036 = phi i32 [ %4, %.thread31 ], [ %15, %12 ]
  %.02335 = phi i32 [ %3, %.thread31 ], [ %14, %12 ]
  %17 = tail call ptr @proto_tree_add_expert(ptr noundef %1, ptr noundef %2, ptr noundef nonnull @ei_gsm_a_dtap_extraneous_data, ptr noundef %0, i32 noundef %.02335, i32 noundef %.036)
  br label %.thread

.thread:                                          ; preds = %5, %16, %12
  ret void
}